target datalayout = "e-m:e-p270:32:32-p271:32:32-p272:64:64-i64:64-i128:128-f80:128-n8:16:32:64-S128"
target triple = "x86_64-pc-linux-gnu"

%struct.amqp_conv = type { i8, ptr }
%struct._packet_info = type { ptr, ptr, i32, i32, %struct.nstime_t, %struct.nstime_t, %struct.nstime_t, i8, ptr, ptr, ptr, ptr, %struct._address, %struct._address, %struct._address, %struct._address, %struct._address, %struct._address, i32, ptr, i8, [3 x i8], %struct.anon.1, i32, i32, i32, i32, ptr, i8, ptr, ptr, i16, i16, i32, i32, i16, i32, i32, ptr, ptr, ptr, i8, i8, i16, i16, i16, i32, i16, i16, ptr, ptr, ptr, ptr, ptr, i32, i32 }
%struct.nstime_t = type { i64, i32 }
%struct._address = type { i32, i32, ptr, ptr }
%struct.anon.1 = type { i8, [3 x i8] }
%struct._amqp_channel_t = type { ptr, i8, i16, i64, ptr, ptr, ptr }
%struct._frame_data = type <{ i32, i32, i32, i32, i32, [4 x i8], i64, ptr, ptr, ptr, i8, i16, [5 x i8], %struct.nstime_t, %struct.nstime_t, i32, i32 }>
%struct.amqp_delivery = type { i64, i32, i32, ptr }
%struct.tcp_analysis = type { %struct._tcp_flow_t, %struct._tcp_flow_t, ptr, ptr, ptr, ptr, %struct.nstime_t, %struct.nstime_t, %struct.nstime_t, %struct.nstime_t, i32, i32, i16, i8, i8, ptr, i8, ptr, i8, i8, i8 }
%struct._tcp_flow_t = type { i8, i32, i32, i32, i16, i16, i8, i16, i8, i8, i8, ptr, i16, i32, i32, i16, ptr, ptr, ptr, ptr }
%struct._proto_node = type { ptr, ptr, ptr, ptr, ptr, ptr, ptr }
%struct.field_info = type { ptr, i32, i32, i32, i32, i32, i32, ptr, ptr, ptr, i32, i32 }

@hf_amqp_method_basic_publish_number = internal global i32 0, align 4
@hf_amqp_method_basic_publish_ticket = internal global i32 0, align 4
@hf_amqp_method_basic_publish_exchange = internal global i32 0, align 4
@hf_amqp_method_basic_publish_routing_key = internal global i32 0, align 4
@hf_amqp_method_basic_publish_mandatory = internal global i32 0, align 4
@hf_amqp_method_basic_publish_immediate = internal global i32 0, align 4
@proto_amqp = internal global i32 0, align 4
@.str.1475 = private unnamed_addr constant [6 x i8] c"x=%s \00", align 1
@.str.1480 = private unnamed_addr constant [7 x i8] c"rk=%s \00", align 1

; Function Attrs: inlinehint nounwind null_pointer_is_valid sspstrong uwtable
define internal void @proto_item_set_generated(ptr noundef %0) #9 {
  %2 = alloca ptr, align 8
  store ptr %0, ptr %2, align 8
  %3 = load ptr, ptr %2, align 8
  %4 = icmp ne ptr %3, null
  br i1 %4, label %5, label %24

5:                                                ; preds = %1
  br label %6

6:                                                ; preds = %5
  %7 = load ptr, ptr %2, align 8
  %8 = getelementptr inbounds nuw %struct._proto_node, ptr %7, i32 0, i32 5
  %9 = load ptr, ptr %8, align 8
  %10 = icmp ne ptr %9, null
  br i1 %10, label %11, label %22

11:                                               ; preds = %6
  %12 = load ptr, ptr %2, align 8
  %13 = getelementptr inbounds nuw %struct._proto_node, ptr %12, i32 0, i32 5
  %14 = load ptr, ptr %13, align 8
  %15 = getelementptr inbounds nuw %struct.field_info, ptr %14, i32 0, i32 6
  %16 = load i32, ptr %15, align 4
  %17 = or i32 %16, 2
  %18 = load ptr, ptr %2, align 8
  %19 = getelementptr inbounds nuw %struct._proto_node, ptr %18, i32 0, i32 5
  %20 = load ptr, ptr %19, align 8
  %21 = getelementptr inbounds nuw %struct.field_info, ptr %20, i32 0, i32 6
  store i32 %17, ptr %21, align 4
  br label %22

22:                                               ; preds = %11, %6
  br label %23

23:                                               ; preds = %22
  br label %24

24:                                               ; preds = %23, %1
  ret void
}

; Function Attrs: null_pointer_is_valid sspstrong uwtable
define internal void @record_msg_delivery_c(ptr noundef %0, ptr noundef %1, ptr noundef %2, ptr noundef %3, i64 noundef %4) #0 {
  %6 = alloca ptr, align 8
  %7 = alloca ptr, align 8
  %8 = alloca ptr, align 8
  %9 = alloca ptr, align 8
  %10 = alloca i64, align 8
  %11 = alloca ptr, align 8
  %12 = alloca ptr, align 8
  %13 = alloca ptr, align 8
  store ptr %0, ptr %6, align 8
  store ptr %1, ptr %7, align 8
  store ptr %2, ptr %8, align 8
  store ptr %3, ptr %9, align 8
  store i64 %4, ptr %10, align 8
  call void @llvm.lifetime.start.p0(i64 8, ptr %11) #11
  call void @llvm.lifetime.start.p0(i64 8, ptr %12) #11
  call void @llvm.lifetime.start.p0(i64 8, ptr %13) #11
  %14 = load ptr, ptr %6, align 8
  %15 = load ptr, ptr %9, align 8
  %16 = call ptr @get_tcp_conversation_data(ptr noundef %14, ptr noundef %15)
  store ptr %16, ptr %11, align 8
  %17 = load ptr, ptr %11, align 8
  %18 = getelementptr inbounds nuw %struct.tcp_analysis, ptr %17, i32 0, i32 2
  %19 = load ptr, ptr %18, align 8
  %20 = load ptr, ptr %11, align 8
  %21 = getelementptr inbounds nuw %struct.tcp_analysis, ptr %20, i32 0, i32 0
  %22 = icmp eq ptr %19, %21
  br i1 %22, label %23, label %26

23:                                               ; preds = %5
  %24 = load ptr, ptr %7, align 8
  %25 = getelementptr inbounds nuw %struct._amqp_channel_t, ptr %24, i32 0, i32 4
  br label %29

26:                                               ; preds = %5
  %27 = load ptr, ptr %7, align 8
  %28 = getelementptr inbounds nuw %struct._amqp_channel_t, ptr %27, i32 0, i32 5
  br label %29

29:                                               ; preds = %26, %23
  %30 = phi ptr [ %25, %23 ], [ %28, %26 ]
  store ptr %30, ptr %12, align 8
  %31 = call ptr @wmem_file_scope()
  %32 = call noalias ptr @wmem_alloc0(ptr noundef %31, i64 noundef 24) #13
  store ptr %32, ptr %13, align 8
  %33 = load i64, ptr %10, align 8
  %34 = load ptr, ptr %13, align 8
  %35 = getelementptr inbounds nuw %struct.amqp_delivery, ptr %34, i32 0, i32 0
  store i64 %33, ptr %35, align 8
  %36 = load ptr, ptr %9, align 8
  %37 = getelementptr inbounds nuw %struct._packet_info, ptr %36, i32 0, i32 3
  %38 = load i32, ptr %37, align 4
  %39 = load ptr, ptr %13, align 8
  %40 = getelementptr inbounds nuw %struct.amqp_delivery, ptr %39, i32 0, i32 1
  store i32 %38, ptr %40, align 8
  %41 = load ptr, ptr %12, align 8
  %42 = load ptr, ptr %41, align 8
  %43 = load ptr, ptr %13, align 8
  %44 = getelementptr inbounds nuw %struct.amqp_delivery, ptr %43, i32 0, i32 3
  store ptr %42, ptr %44, align 8
  %45 = load ptr, ptr %13, align 8
  %46 = load ptr, ptr %12, align 8
  store ptr %45, ptr %46, align 8
  %47 = load ptr, ptr %9, align 8
  %48 = getelementptr inbounds nuw %struct._packet_info, ptr %47, i32 0, i32 51
  %49 = load ptr, ptr %48, align 8
  %50 = load ptr, ptr %9, align 8
  %51 = load i32, ptr @proto_amqp, align 4
  %52 = load ptr, ptr %8, align 8
  %53 = call i32 @tvb_raw_offset(ptr noundef %52)
  %54 = load ptr, ptr %13, align 8
  call void @p_add_proto_data(ptr noundef %49, ptr noundef %50, i32 noundef %51, i32 noundef %53, ptr noundef %54)
  call void @llvm.lifetime.end.p0(i64 8, ptr %13) #11
  call void @llvm.lifetime.end.p0(i64 8, ptr %12) #11
  call void @llvm.lifetime.end.p0(i64 8, ptr %11) #11
  ret void
}

; Function Attrs: null_pointer_is_valid sspstrong uwtable
define internal ptr @get_conversation_channel(ptr noundef %0, i16 noundef zeroext %1) #0 {
  %3 = alloca ptr, align 8
  %4 = alloca ptr, align 8
  %5 = alloca i16, align 2
  %6 = alloca ptr, align 8
  %7 = alloca ptr, align 8
  %8 = alloca i32, align 4
  store ptr %0, ptr %4, align 8
  store i16 %1, ptr %5, align 2
  call void @llvm.lifetime.start.p0(i64 8, ptr %6) #11
  call void @llvm.lifetime.start.p0(i64 8, ptr %7) #11
  %9 = load ptr, ptr %4, align 8
  %10 = load i32, ptr @proto_amqp, align 4
  %11 = call ptr @conversation_get_proto_data(ptr noundef %9, i32 noundef %10)
  store ptr %11, ptr %6, align 8
  %12 = load ptr, ptr %6, align 8
  %13 = icmp ne ptr %12, null
  br i1 %13, label %15, label %14

14:                                               ; preds = %2
  store ptr null, ptr %3, align 8
  store i32 1, ptr %8, align 4
  br label %46

15:                                               ; preds = %2
  %16 = load ptr, ptr %6, align 8
  %17 = getelementptr inbounds nuw %struct.amqp_conv, ptr %16, i32 0, i32 1
  %18 = load ptr, ptr %17, align 8
  %19 = load i16, ptr %5, align 2
  %20 = zext i16 %19 to i32
  %21 = zext i32 %20 to i64
  %22 = inttoptr i64 %21 to ptr
  %23 = call ptr @wmem_map_lookup(ptr noundef %18, ptr noundef %22)
  store ptr %23, ptr %7, align 8
  %24 = load ptr, ptr %7, align 8
  %25 = icmp eq ptr %24, null
  br i1 %25, label %26, label %44

26:                                               ; preds = %15
  %27 = call ptr @wmem_file_scope()
  %28 = call noalias ptr @wmem_alloc0(ptr noundef %27, i64 noundef 48) #13
  store ptr %28, ptr %7, align 8
  %29 = load ptr, ptr %6, align 8
  %30 = load ptr, ptr %7, align 8
  %31 = getelementptr inbounds nuw %struct._amqp_channel_t, ptr %30, i32 0, i32 0
  store ptr %29, ptr %31, align 8
  %32 = load i16, ptr %5, align 2
  %33 = load ptr, ptr %7, align 8
  %34 = getelementptr inbounds nuw %struct._amqp_channel_t, ptr %33, i32 0, i32 2
  store i16 %32, ptr %34, align 2
  %35 = load ptr, ptr %6, align 8
  %36 = getelementptr inbounds nuw %struct.amqp_conv, ptr %35, i32 0, i32 1
  %37 = load ptr, ptr %36, align 8
  %38 = load i16, ptr %5, align 2
  %39 = zext i16 %38 to i32
  %40 = zext i32 %39 to i64
  %41 = inttoptr i64 %40 to ptr
  %42 = load ptr, ptr %7, align 8
  %43 = call ptr @wmem_map_insert(ptr noundef %37, ptr noundef %41, ptr noundef %42)
  br label %44

44:                                               ; preds = %26, %15
  %45 = load ptr, ptr %7, align 8
  store ptr %45, ptr %3, align 8
  store i32 1, ptr %8, align 4
  br label %46

46:                                               ; preds = %44, %14
  call void @llvm.lifetime.end.p0(i64 8, ptr %7) #11
  call void @llvm.lifetime.end.p0(i64 8, ptr %6) #11
  %47 = load ptr, ptr %3, align 8
  ret ptr %47
}

; Function Attrs: null_pointer_is_valid sspstrong uwtable
define internal i32 @dissect_amqp_0_9_method_basic_publish(i16 noundef zeroext %0, ptr noundef %1, ptr noundef %2, i32 noundef %3, ptr noundef %4) #0 {
  %6 = alloca i16, align 2
  %7 = alloca ptr, align 8
  %8 = alloca ptr, align 8
  %9 = alloca i32, align 4
  %10 = alloca ptr, align 8
  %11 = alloca ptr, align 8
  %12 = alloca ptr, align 8
  %13 = alloca ptr, align 8
  %14 = alloca ptr, align 8
  %15 = alloca ptr, align 8
  store i16 %0, ptr %6, align 2
  store ptr %1, ptr %7, align 8
  store ptr %2, ptr %8, align 8
  store i32 %3, ptr %9, align 4
  store ptr %4, ptr %10, align 8
  call void @llvm.lifetime.start.p0(i64 8, ptr %11) #11
  call void @llvm.lifetime.start.p0(i64 8, ptr %12) #11
  call void @llvm.lifetime.start.p0(i64 8, ptr %13) #11
  %16 = load ptr, ptr %8, align 8
  %17 = getelementptr inbounds nuw %struct._packet_info, ptr %16, i32 0, i32 8
  %18 = load ptr, ptr %17, align 8
  %19 = getelementptr inbounds nuw %struct._frame_data, ptr %18, i32 0, i32 11
  %20 = load i16, ptr %19, align 1
  %21 = lshr i16 %20, 3
  %22 = and i16 %21, 1
  %23 = zext i16 %22 to i32
  %24 = icmp ne i32 %23, 0
  br i1 %24, label %39, label %25

25:                                               ; preds = %5
  call void @llvm.lifetime.start.p0(i64 8, ptr %14) #11
  call void @llvm.lifetime.start.p0(i64 8, ptr %15) #11
  %26 = load ptr, ptr %8, align 8
  %27 = call ptr @find_or_create_conversation(ptr noundef %26)
  store ptr %27, ptr %14, align 8
  %28 = load ptr, ptr %14, align 8
  %29 = load i16, ptr %6, align 2
  %30 = call ptr @get_conversation_channel(ptr noundef %28, i16 noundef zeroext %29)
  store ptr %30, ptr %15, align 8
  %31 = load ptr, ptr %14, align 8
  %32 = load ptr, ptr %15, align 8
  %33 = load ptr, ptr %7, align 8
  %34 = load ptr, ptr %8, align 8
  %35 = load ptr, ptr %15, align 8
  %36 = getelementptr inbounds nuw %struct._amqp_channel_t, ptr %35, i32 0, i32 3
  %37 = load i64, ptr %36, align 8
  %38 = add i64 %37, 1
  store i64 %38, ptr %36, align 8
  call void @record_msg_delivery_c(ptr noundef %31, ptr noundef %32, ptr noundef %33, ptr noundef %34, i64 noundef %38)
  call void @llvm.lifetime.end.p0(i64 8, ptr %15) #11
  call void @llvm.lifetime.end.p0(i64 8, ptr %14) #11
  br label %39

39:                                               ; preds = %25, %5
  %40 = load ptr, ptr %8, align 8
  %41 = getelementptr inbounds nuw %struct._packet_info, ptr %40, i32 0, i32 51
  %42 = load ptr, ptr %41, align 8
  %43 = load ptr, ptr %8, align 8
  %44 = load i32, ptr @proto_amqp, align 4
  %45 = load ptr, ptr %7, align 8
  %46 = call i32 @tvb_raw_offset(ptr noundef %45)
  %47 = call ptr @p_get_proto_data(ptr noundef %42, ptr noundef %43, i32 noundef %44, i32 noundef %46)
  store ptr %47, ptr %11, align 8
  %48 = load ptr, ptr %11, align 8
  %49 = icmp ne ptr %48, null
  br i1 %49, label %50, label %61

50:                                               ; preds = %39
  %51 = load ptr, ptr %10, align 8
  %52 = load i32, ptr @hf_amqp_method_basic_publish_number, align 4
  %53 = load ptr, ptr %7, align 8
  %54 = load i32, ptr %9, align 4
  %55 = sub i32 %54, 2
  %56 = load ptr, ptr %11, align 8
  %57 = getelementptr inbounds nuw %struct.amqp_delivery, ptr %56, i32 0, i32 0
  %58 = load i64, ptr %57, align 8
  %59 = call ptr @proto_tree_add_uint64(ptr noundef %51, i32 noundef %52, ptr noundef %53, i32 noundef %55, i32 noundef 2, i64 noundef %58)
  store ptr %59, ptr %12, align 8
  %60 = load ptr, ptr %12, align 8
  call void @proto_item_set_generated(ptr noundef %60)
  br label %61

61:                                               ; preds = %50, %39
  %62 = load ptr, ptr %10, align 8
  %63 = load i32, ptr @hf_amqp_method_basic_publish_ticket, align 4
  %64 = load ptr, ptr %7, align 8
  %65 = load i32, ptr %9, align 4
  %66 = call ptr @proto_tree_add_item(ptr noundef %62, i32 noundef %63, ptr noundef %64, i32 noundef %65, i32 noundef 2, i32 noundef 0)
  %67 = load i32, ptr %9, align 4
  %68 = add i32 %67, 2
  store i32 %68, ptr %9, align 4
  %69 = load ptr, ptr %10, align 8
  %70 = load i32, ptr @hf_amqp_method_basic_publish_exchange, align 4
  %71 = load ptr, ptr %7, align 8
  %72 = load i32, ptr %9, align 4
  %73 = add i32 %72, 1
  %74 = load ptr, ptr %7, align 8
  %75 = load i32, ptr %9, align 4
  %76 = call zeroext i8 @tvb_get_uint8(ptr noundef %74, i32 noundef %75)
  %77 = zext i8 %76 to i32
  %78 = load ptr, ptr %8, align 8
  %79 = getelementptr inbounds nuw %struct._packet_info, ptr %78, i32 0, i32 51
  %80 = load ptr, ptr %79, align 8
  %81 = call ptr @proto_tree_add_item_ret_string(ptr noundef %69, i32 noundef %70, ptr noundef %71, i32 noundef %73, i32 noundef %77, i32 noundef 0, ptr noundef %80, ptr noundef %13)
  %82 = load ptr, ptr %8, align 8
  %83 = getelementptr inbounds nuw %struct._packet_info, ptr %82, i32 0, i32 1
  %84 = load ptr, ptr %83, align 8
  %85 = load ptr, ptr %13, align 8
  call void (ptr, i32, ptr, ...) @col_append_fstr(ptr noundef %84, i32 noundef 25, ptr noundef @.str.1475, ptr noundef %85)
  %86 = load ptr, ptr %7, align 8
  %87 = load i32, ptr %9, align 4
  %88 = call zeroext i8 @tvb_get_uint8(ptr noundef %86, i32 noundef %87)
  %89 = zext i8 %88 to i32
  %90 = add i32 1, %89
  %91 = load i32, ptr %9, align 4
  %92 = add i32 %91, %90
  store i32 %92, ptr %9, align 4
  %93 = load ptr, ptr %10, align 8
  %94 = load i32, ptr @hf_amqp_method_basic_publish_routing_key, align 4
  %95 = load ptr, ptr %7, align 8
  %96 = load i32, ptr %9, align 4
  %97 = add i32 %96, 1
  %98 = load ptr, ptr %7, align 8
  %99 = load i32, ptr %9, align 4
  %100 = call zeroext i8 @tvb_get_uint8(ptr noundef %98, i32 noundef %99)
  %101 = zext i8 %100 to i32
  %102 = load ptr, ptr %8, align 8
  %103 = getelementptr inbounds nuw %struct._packet_info, ptr %102, i32 0, i32 51
  %104 = load ptr, ptr %103, align 8
  %105 = call ptr @proto_tree_add_item_ret_string(ptr noundef %93, i32 noundef %94, ptr noundef %95, i32 noundef %97, i32 noundef %101, i32 noundef 0, ptr noundef %104, ptr noundef %13)
  %106 = load ptr, ptr %8, align 8
  %107 = getelementptr inbounds nuw %struct._packet_info, ptr %106, i32 0, i32 1
  %108 = load ptr, ptr %107, align 8
  %109 = load ptr, ptr %13, align 8
  call void (ptr, i32, ptr, ...) @col_append_fstr(ptr noundef %108, i32 noundef 25, ptr noundef @.str.1480, ptr noundef %109)
  %110 = load ptr, ptr %7, align 8
  %111 = load i32, ptr %9, align 4
  %112 = call zeroext i8 @tvb_get_uint8(ptr noundef %110, i32 noundef %111)
  %113 = zext i8 %112 to i32
  %114 = add i32 1, %113
  %115 = load i32, ptr %9, align 4
  %116 = add i32 %115, %114
  store i32 %116, ptr %9, align 4
  %117 = load ptr, ptr %10, align 8
  %118 = load i32, ptr @hf_amqp_method_basic_publish_mandatory, align 4
  %119 = load ptr, ptr %7, align 8
  %120 = load i32, ptr %9, align 4
  %121 = call ptr @proto_tree_add_item(ptr noundef %117, i32 noundef %118, ptr noundef %119, i32 noundef %120, i32 noundef 1, i32 noundef 0)
  %122 = load ptr, ptr %10, align 8
  %123 = load i32, ptr @hf_amqp_method_basic_publish_immediate, align 4
  %124 = load ptr, ptr %7, align 8
  %125 = load i32, ptr %9, align 4
  %126 = call ptr @proto_tree_add_item(ptr noundef %122, i32 noundef %123, ptr noundef %124, i32 noundef %125, i32 noundef 1, i32 noundef 0)
  %127 = load i32, ptr %9, align 4
  call void @llvm.lifetime.end.p0(i64 8, ptr %13) #11
  call void @llvm.lifetime.end.p0(i64 8, ptr %12) #11
  call void @llvm.lifetime.end.p0(i64 8, ptr %11) #11
  ret i32 %127
}