; Function Attrs: null_pointer_is_valid sspstrong uwtable
define internal fastcc void @dissect_amqp_0_9_method_basic_publish(i16 noundef zeroext %0, ptr noundef %1, ptr noundef %2, ptr noundef %3) unnamed_addr #0 {
  %5 = alloca ptr, align 8
  call void @llvm.lifetime.start.p0(i64 8, ptr nonnull %5) #14
  %6 = getelementptr inbounds nuw i8, ptr %2, i64 80
  %7 = load ptr, ptr %6, align 8
  %8 = getelementptr inbounds nuw i8, ptr %7, i64 57
  %9 = load i16, ptr %8, align 1
  %10 = and i16 %9, 8
  %.not = icmp eq i16 %10, 0
  br i1 %.not, label %11, label %47

11:                                               ; preds = %4
  %12 = tail call ptr @find_or_create_conversation(ptr noundef %2)
  %13 = load i32, ptr @proto_amqp, align 4
  %14 = tail call ptr @conversation_get_proto_data(ptr noundef %12, i32 noundef %13)
  %.not.i = icmp eq ptr %14, null
  br i1 %.not.i, label %get_conversation_channel.exit, label %15

15:                                               ; preds = %11
  %16 = getelementptr inbounds nuw i8, ptr %14, i64 8
  %17 = load ptr, ptr %16, align 8
  %18 = zext i16 %0 to i64
  %19 = inttoptr i64 %18 to ptr
  %20 = tail call ptr @wmem_map_lookup(ptr noundef %17, ptr noundef %19)
  %21 = icmp eq ptr %20, null
  br i1 %21, label %22, label %get_conversation_channel.exit

22:                                               ; preds = %15
  %23 = tail call ptr @wmem_file_scope()
  %24 = tail call noalias dereferenceable_or_null(48) ptr @wmem_alloc0(ptr noundef %23, i64 noundef 48) #13
  store ptr %14, ptr %24, align 8
  %25 = getelementptr inbounds nuw i8, ptr %24, i64 10
  store i16 %0, ptr %25, align 2
  %26 = load ptr, ptr %16, align 8
  %27 = tail call ptr @wmem_map_insert(ptr noundef %26, ptr noundef %19, ptr noundef %24)
  br label %get_conversation_channel.exit

get_conversation_channel.exit:                    ; preds = %11, %15, %22
  %.013.i = phi ptr [ null, %11 ], [ %24, %22 ], [ %20, %15 ]
  %28 = getelementptr inbounds nuw i8, ptr %.013.i, i64 16
  %29 = load i64, ptr %28, align 8
  %30 = add i64 %29, 1
  store i64 %30, ptr %28, align 8
  %31 = tail call ptr @get_tcp_conversation_data(ptr noundef %12, ptr noundef %2)
  %32 = getelementptr inbounds nuw i8, ptr %31, i64 176
  %33 = load ptr, ptr %32, align 8
  %34 = icmp eq ptr %33, %31
  %.v.i = select i1 %34, i64 24, i64 32
  %35 = getelementptr inbounds nuw i8, ptr %.013.i, i64 %.v.i
  %36 = tail call ptr @wmem_file_scope()
  %37 = tail call noalias dereferenceable_or_null(24) ptr @wmem_alloc0(ptr noundef %36, i64 noundef 24) #13
  store i64 %30, ptr %37, align 8
  %38 = getelementptr inbounds nuw i8, ptr %2, i64 20
  %39 = load i32, ptr %38, align 4
  %40 = getelementptr inbounds nuw i8, ptr %37, i64 8
  store i32 %39, ptr %40, align 8
  %41 = load ptr, ptr %35, align 8
  %42 = getelementptr inbounds nuw i8, ptr %37, i64 16
  store ptr %41, ptr %42, align 8
  store ptr %37, ptr %35, align 8
  %43 = getelementptr inbounds nuw i8, ptr %2, i64 408
  %44 = load ptr, ptr %43, align 8
  %45 = load i32, ptr @proto_amqp, align 4
  %46 = tail call i32 @tvb_raw_offset(ptr noundef %1)
  tail call void @p_add_proto_data(ptr noundef %44, ptr noundef %2, i32 noundef %45, i32 noundef %46, ptr noundef %37)
  br label %47

47:                                               ; preds = %get_conversation_channel.exit, %4
  %48 = getelementptr inbounds nuw i8, ptr %2, i64 408
  %49 = load ptr, ptr %48, align 8
  %50 = load i32, ptr @proto_amqp, align 4
  %51 = tail call i32 @tvb_raw_offset(ptr noundef %1)
  %52 = tail call ptr @p_get_proto_data(ptr noundef %49, ptr noundef %2, i32 noundef %50, i32 noundef %51)
  %.not48 = icmp eq ptr %52, null
  br i1 %.not48, label %proto_item_set_generated.exit, label %53

53:                                               ; preds = %47
  %54 = load i32, ptr @hf_amqp_method_basic_publish_number, align 4
  %55 = load i64, ptr %52, align 8
  %56 = tail call ptr @proto_tree_add_uint64(ptr noundef %3, i32 noundef %54, ptr noundef %1, i32 noundef 9, i32 noundef 2, i64 noundef %55)
  %.not.i49 = icmp eq ptr %56, null
  br i1 %.not.i49, label %proto_item_set_generated.exit, label %57

57:                                               ; preds = %53
  %58 = getelementptr inbounds nuw i8, ptr %56, i64 40
  %59 = load ptr, ptr %58, align 8
  %.not5.i = icmp eq ptr %59, null
  br i1 %.not5.i, label %proto_item_set_generated.exit, label %60

60:                                               ; preds = %57
  %61 = getelementptr inbounds nuw i8, ptr %59, i64 28
  %62 = load i32, ptr %61, align 4
  %63 = or i32 %62, 2
  store i32 %63, ptr %61, align 4
  br label %proto_item_set_generated.exit

proto_item_set_generated.exit:                    ; preds = %60, %57, %53, %47
  %64 = load i32, ptr @hf_amqp_method_basic_publish_ticket, align 4
  %65 = tail call ptr @proto_tree_add_item(ptr noundef %3, i32 noundef %64, ptr noundef %1, i32 noundef 11, i32 noundef 2, i32 noundef 0)
  %66 = load i32, ptr @hf_amqp_method_basic_publish_exchange, align 4
  %67 = tail call zeroext i8 @tvb_get_uint8(ptr noundef %1, i32 noundef 13)
  %68 = zext i8 %67 to i32
  %69 = load ptr, ptr %48, align 8
  %70 = call ptr @proto_tree_add_item_ret_string(ptr noundef %3, i32 noundef %66, ptr noundef %1, i32 noundef 14, i32 noundef %68, i32 noundef 0, ptr noundef %69, ptr noundef nonnull %5)
  %71 = getelementptr inbounds nuw i8, ptr %2, i64 8
  %72 = load ptr, ptr %71, align 8
  %73 = load ptr, ptr %5, align 8
  call void (ptr, i32, ptr, ...) @col_append_fstr(ptr noundef %72, i32 noundef 25, ptr noundef nonnull @.str.1475, ptr noundef %73)
  %74 = call zeroext i8 @tvb_get_uint8(ptr noundef %1, i32 noundef 13)
  %75 = zext i8 %74 to i32
  %76 = add nuw nsw i32 %75, 14
  %77 = load i32, ptr @hf_amqp_method_basic_publish_routing_key, align 4
  %78 = add nuw nsw i32 %75, 15
  %79 = call zeroext i8 @tvb_get_uint8(ptr noundef %1, i32 noundef %76)
  %80 = zext i8 %79 to i32
  %81 = load ptr, ptr %48, align 8
  %82 = call ptr @proto_tree_add_item_ret_string(ptr noundef %3, i32 noundef %77, ptr noundef %1, i32 noundef %78, i32 noundef %80, i32 noundef 0, ptr noundef %81, ptr noundef nonnull %5)
  %83 = load ptr, ptr %71, align 8
  %84 = load ptr, ptr %5, align 8
  call void (ptr, i32, ptr, ...) @col_append_fstr(ptr noundef %83, i32 noundef 25, ptr noundef nonnull @.str.1480, ptr noundef %84)
  %85 = call zeroext i8 @tvb_get_uint8(ptr noundef %1, i32 noundef %76)
  %86 = zext i8 %85 to i32
  %87 = add nuw nsw i32 %78, %86
  %88 = load i32, ptr @hf_amqp_method_basic_publish_mandatory, align 4
  %89 = call ptr @proto_tree_add_item(ptr noundef %3, i32 noundef %88, ptr noundef %1, i32 noundef %87, i32 noundef 1, i32 noundef 0)
  %90 = load i32, ptr @hf_amqp_method_basic_publish_immediate, align 4
  %91 = call ptr @proto_tree_add_item(ptr noundef %3, i32 noundef %90, ptr noundef %1, i32 noundef %87, i32 noundef 1, i32 noundef 0)
  call void @llvm.lifetime.end.p0(i64 8, ptr nonnull %5) #14
  ret void
}